target datalayout = "e-m:e-p270:32:32-p271:32:32-p272:64:64-i64:64-i128:128-f80:128-n8:16:32:64-S128"
target triple = "x86_64-pc-linux-gnu"

; Function Attrs: nounwind uwtable
define hidden void @av1_inv_txfm2d_add_16x64_c(ptr noundef %0, ptr noundef %1, i32 noundef %2, i8 noundef zeroext %3, i32 noundef %4) #0 {
  %6 = alloca ptr, align 8
  %7 = alloca ptr, align 8
  %8 = alloca i32, align 4
  %9 = alloca i8, align 1
  %10 = alloca i32, align 4
  %11 = alloca [1024 x i32], align 16
  %12 = alloca [1152 x i32], align 32
  store ptr %0, ptr %6, align 8
  store ptr %1, ptr %7, align 8
  store i32 %2, ptr %8, align 4
  store i8 %3, ptr %9, align 1
  store i32 %4, ptr %10, align 4
  %13 = getelementptr inbounds [1024 x i32], ptr %11, i64 0, i64 0
  %14 = load ptr, ptr %6, align 8
  call void @llvm.memcpy.p0.p0.i64(ptr align 16 %13, ptr align 4 %14, i64 2048, i1 false)
  %15 = getelementptr inbounds [1024 x i32], ptr %11, i64 0, i64 0
  %16 = getelementptr inbounds i32, ptr %15, i64 512
  call void @llvm.memset.p0.i64(ptr align 4 %16, i8 0, i64 2048, i1 false)
  %17 = getelementptr inbounds [1024 x i32], ptr %11, i64 0, i64 0
  %18 = load ptr, ptr %7, align 8
  %19 = load i32, ptr %8, align 4
  %20 = getelementptr inbounds [1152 x i32], ptr %12, i64 0, i64 0
  %21 = load i8, ptr %9, align 1
  %22 = load i32, ptr %10, align 4
  call void @inv_txfm2d_add_facade(ptr noundef %17, ptr noundef %18, i32 noundef %19, ptr noundef %20, i8 noundef zeroext %21, i8 noundef zeroext 17, i32 noundef %22)
  ret void
}